; Function Attrs: mustprogress nofree nounwind uwtable
define dso_local noundef ptr @_ZNK8simdjson8internal29available_implementation_list5beginEv(ptr noundef nonnull readnone align 1 captures(none) dereferenceable(1) %0) local_unnamed_addr #13 align 2 personality ptr @__gxx_personality_v0 {
  %2 = load atomic i8, ptr @_ZGVZN8simdjson8internalL37get_available_implementation_pointersEvE33available_implementation_pointers acquire, align 8
  %3 = icmp eq i8 %2, 0
  br i1 %3, label %4, label %_ZN8simdjson8internalL37get_available_implementation_pointersEv.exit, !prof !51

4:                                                ; preds = %1
  %5 = tail call i32 @__cxa_guard_acquire(ptr nonnull @_ZGVZN8simdjson8internalL37get_available_implementation_pointersEvE33available_implementation_pointers) #45
  %.not.i = icmp eq i32 %5, 0
  br i1 %.not.i, label %_ZN8simdjson8internalL37get_available_implementation_pointersEv.exit, label %6

6:                                                ; preds = %4
  tail call fastcc void @_ZN8simdjson8internalL21get_icelake_singletonEv()
  store ptr @_ZZN8simdjson8internalL21get_icelake_singletonEvE17icelake_singleton, ptr @_ZGRZN8simdjson8internalL37get_available_implementation_pointersEvE33available_implementation_pointers_, align 8, !tbaa !55
  tail call fastcc void @_ZN8simdjson8internalL21get_haswell_singletonEv()
  store ptr @_ZZN8simdjson8internalL21get_haswell_singletonEvE17haswell_singleton, ptr getelementptr inbounds nuw (i8, ptr @_ZGRZN8simdjson8internalL37get_available_implementation_pointersEvE33available_implementation_pointers_, i64 8), align 8, !tbaa !55
  tail call fastcc void @_ZN8simdjson8internalL22get_westmere_singletonEv()
  store ptr @_ZZN8simdjson8internalL22get_westmere_singletonEvE18westmere_singleton, ptr getelementptr inbounds nuw (i8, ptr @_ZGRZN8simdjson8internalL37get_available_implementation_pointersEvE33available_implementation_pointers_, i64 16), align 8, !tbaa !55
  tail call fastcc void @_ZN8simdjson8internalL22get_fallback_singletonEv()
  store ptr @_ZZN8simdjson8internalL22get_fallback_singletonEvE18fallback_singleton, ptr getelementptr inbounds nuw (i8, ptr @_ZGRZN8simdjson8internalL37get_available_implementation_pointersEvE33available_implementation_pointers_, i64 24), align 8, !tbaa !55
  store ptr @_ZGRZN8simdjson8internalL37get_available_implementation_pointersEvE33available_implementation_pointers_, ptr @_ZZN8simdjson8internalL37get_available_implementation_pointersEvE33available_implementation_pointers, align 8, !tbaa !57
  store i64 4, ptr getelementptr inbounds nuw (i8, ptr @_ZZN8simdjson8internalL37get_available_implementation_pointersEvE33available_implementation_pointers, i64 8), align 8, !tbaa !61
  %7 = tail call ptr @llvm.invariant.start.p0(i64 16, ptr nonnull @_ZZN8simdjson8internalL37get_available_implementation_pointersEvE33available_implementation_pointers)
  tail call void @__cxa_guard_release(ptr nonnull @_ZGVZN8simdjson8internalL37get_available_implementation_pointersEvE33available_implementation_pointers) #45
  br label %_ZN8simdjson8internalL37get_available_implementation_pointersEv.exit

_ZN8simdjson8internalL37get_available_implementation_pointersEv.exit: ; preds = %6, %4, %1
  %8 = load ptr, ptr @_ZZN8simdjson8internalL37get_available_implementation_pointersEvE33available_implementation_pointers, align 8, !tbaa !57
  ret ptr %8
}